; Function Attrs: nounwind uwtable
define ptr @get_ca_names(ptr noundef %0) local_unnamed_addr #0 {
  %2 = getelementptr inbounds nuw i8, ptr %0, i64 120
  %3 = load i32, ptr %2, align 8, !tbaa !100
  %.not = icmp eq i32 %3, 0
  br i1 %.not, label %select.unfold, label %4

4:                                                ; preds = %1
  %5 = tail call ptr @SSL_get_client_CA_list(ptr noundef nonnull %0) #11
  %.not10 = icmp eq ptr %5, null
  br i1 %.not10, label %select.unfold, label %6

6:                                                ; preds = %4
  %7 = tail call i32 @OPENSSL_sk_num(ptr noundef nonnull %5) #11
  %8 = icmp eq i32 %7, 0
  br i1 %8, label %select.unfold, label %10

select.unfold:                                    ; preds = %6, %4, %1
  %9 = tail call ptr @SSL_get0_CA_list(ptr noundef nonnull %0) #11
  br label %10

10:                                               ; preds = %6, %select.unfold
  %.1 = phi ptr [ %9, %select.unfold ], [ %5, %6 ]
  ret ptr %.1
}